S'/mnt/isilon/xing_lab/wangy14/project/annotation_rmats-turbo/nature_protocols/PC3E-GS689/plot_rmats2sashimi/output_example/Sashimi_index_USO1_1/chr4/chr4:76714843:76715054:+@chr4:76716489:76716509:+@chr4:76720775:76720885:+.pickle'
p1
.