S'/mnt/isilon/xing_lab/wangy14/project/annotation_rmats-turbo/nature_protocols/PC3E-GS689/plot_rmats2sashimi/output_example/Sashimi_index_MAST3_2/chr19/chr19:18232660:18232732:+@chr19:18232917:18232937:+@chr19:18233483:18233561:+.pickle'
p1
.